target datalayout = "e-m:e-p270:32:32-p271:32:32-p272:64:64-i64:64-i128:128-f80:128-n8:16:32:64-S128"
target triple = "x86_64-pc-linux-gnu"

%"class.llvm::StringRef" = type { ptr, i64 }
%"class.llvm::StringMapImpl" = type { ptr, i32, i32, i32, i32 }
%"class.llvm::SmallVectorBase" = type { ptr, i32, i32 }
%"class.std::__cxx11::basic_string" = type { %"struct.std::__cxx11::basic_string<char>::_Alloc_hider", i64, %union.anon }
%"struct.std::__cxx11::basic_string<char>::_Alloc_hider" = type { ptr }
%union.anon = type { i64, [8 x i8] }
%"class.clang::CustomizableOptional" = type { %"class.clang::optional_detail::OptionalStorage" }
%"class.clang::optional_detail::OptionalStorage" = type { %"class.clang::FileMgr::MapEntryOptionalStorage" }
%"class.clang::FileMgr::MapEntryOptionalStorage" = type { %"class.clang::DirectoryEntryRef" }
%"class.clang::DirectoryEntryRef" = type { ptr }
%"class.std::vector.38" = type { %"struct.std::_Vector_base.39" }
%"struct.std::_Vector_base.39" = type { %"struct.std::_Vector_base<std::__cxx11::basic_string<char>, std::allocator<std::__cxx11::basic_string<char>>>::_Vector_impl" }
%"struct.std::_Vector_base<std::__cxx11::basic_string<char>, std::allocator<std::__cxx11::basic_string<char>>>::_Vector_impl" = type { %"struct.std::_Vector_base<std::__cxx11::basic_string<char>, std::allocator<std::__cxx11::basic_string<char>>>::_Vector_impl_data" }
%"struct.std::_Vector_base<std::__cxx11::basic_string<char>, std::allocator<std::__cxx11::basic_string<char>>>::_Vector_impl_data" = type { ptr, ptr, ptr }
%"class.llvm::SmallVector.60" = type { %"class.llvm::SmallVectorImpl.61", %"struct.llvm::SmallVectorStorage.64" }
%"class.llvm::SmallVectorImpl.61" = type { %"class.llvm::SmallVectorTemplateBase.62" }
%"class.llvm::SmallVectorTemplateBase.62" = type { %"class.llvm::SmallVectorTemplateCommon.63" }
%"class.llvm::SmallVectorTemplateCommon.63" = type { %"class.llvm::SmallVectorBase" }
%"struct.llvm::SmallVectorStorage.64" = type { [16 x i8] }
%"class.clang::CustomizableOptional.244" = type { %"class.clang::optional_detail::OptionalStorage.245" }
%"class.clang::optional_detail::OptionalStorage.245" = type { %"class.clang::FileMgr::MapEntryOptionalStorage.246" }
%"class.clang::FileMgr::MapEntryOptionalStorage.246" = type { %"class.clang::FileEntryRef" }
%"class.clang::FileEntryRef" = type { ptr }
%"class.clang::Module" = type { %"class.std::__cxx11::basic_string", %"class.clang::SourceLocation", i32, ptr, %"class.clang::CustomizableOptional", %"class.std::__cxx11::basic_string", %"class.std::variant", %"struct.clang::ASTFileSignature", %"class.std::__cxx11::basic_string", %"class.std::__cxx11::basic_string", %"class.std::__cxx11::basic_string", %"class.std::__cxx11::basic_string", %"class.std::vector.313", %"class.llvm::StringMap.318", %"class.clang::CustomizableOptional.244", %"class.llvm::SmallSetVector.319", %"class.std::vector.38", %"class.llvm::DenseSet.331", i32, [5 x %"class.llvm::SmallVector.336"], %"class.llvm::SmallVector.341", %"class.llvm::SmallVector.341", %"class.llvm::SmallVector.346", ptr, i16, i32, %"class.clang::SourceLocation", %"class.llvm::SmallSetVector.351", %"class.llvm::SmallSetVector.351", %"class.llvm::SmallVector.358", %"class.llvm::SmallVector.363", %"class.llvm::SmallVector.60", %"class.llvm::SmallVector.368", %"class.llvm::SmallSetVector.373", %"class.llvm::SmallVector.380", i8, %"class.std::vector.38", %"class.std::vector.385", %"class.std::vector.390" }
%"class.std::variant" = type { %"struct.std::__detail::__variant::_Variant_base.base", [7 x i8] }
%"struct.std::__detail::__variant::_Variant_base.base" = type { %"struct.std::__detail::__variant::_Move_assign_base.base" }
%"struct.std::__detail::__variant::_Move_assign_base.base" = type { %"struct.std::__detail::__variant::_Copy_assign_base.base" }
%"struct.std::__detail::__variant::_Copy_assign_base.base" = type { %"struct.std::__detail::__variant::_Move_ctor_base.base" }
%"struct.std::__detail::__variant::_Move_ctor_base.base" = type { %"struct.std::__detail::__variant::_Copy_ctor_base.base" }
%"struct.std::__detail::__variant::_Copy_ctor_base.base" = type { %"struct.std::__detail::__variant::_Variant_storage.base" }
%"struct.std::__detail::__variant::_Variant_storage.base" = type <{ %"union.std::__detail::__variant::_Variadic_union", i8 }>
%"union.std::__detail::__variant::_Variadic_union" = type { %"union.std::__detail::__variant::_Variadic_union.307" }
%"union.std::__detail::__variant::_Variadic_union.307" = type { %"struct.std::__detail::__variant::_Uninitialized.308" }
%"struct.std::__detail::__variant::_Uninitialized.308" = type { %"class.clang::FileEntryRef" }
%"struct.clang::ASTFileSignature" = type { %"struct.std::array" }
%"struct.std::array" = type { [20 x i8] }
%"class.std::vector.313" = type { %"struct.std::_Vector_base.314" }
%"struct.std::_Vector_base.314" = type { %"struct.std::_Vector_base<clang::Module *, std::allocator<clang::Module *>>::_Vector_impl" }
%"struct.std::_Vector_base<clang::Module *, std::allocator<clang::Module *>>::_Vector_impl" = type { %"struct.std::_Vector_base<clang::Module *, std::allocator<clang::Module *>>::_Vector_impl_data" }
%"struct.std::_Vector_base<clang::Module *, std::allocator<clang::Module *>>::_Vector_impl_data" = type { ptr, ptr, ptr }
%"class.llvm::StringMap.318" = type { %"class.llvm::StringMapImpl" }
%"class.llvm::SmallSetVector.319" = type { %"class.llvm::SetVector.320" }
%"class.llvm::SetVector.320" = type { %"class.llvm::DenseSet.321", %"class.llvm::SmallVector.326" }
%"class.llvm::DenseSet.321" = type { %"class.llvm::detail::DenseSetImpl.322" }
%"class.llvm::detail::DenseSetImpl.322" = type { %"class.llvm::DenseMap.323" }
%"class.llvm::DenseMap.323" = type <{ ptr, i32, i32, i32, [4 x i8] }>
%"class.llvm::SmallVector.326" = type { %"class.llvm::SmallVectorImpl.327", %"struct.llvm::SmallVectorStorage.330" }
%"class.llvm::SmallVectorImpl.327" = type { %"class.llvm::SmallVectorTemplateBase.328" }
%"class.llvm::SmallVectorTemplateBase.328" = type { %"class.llvm::SmallVectorTemplateCommon.329" }
%"class.llvm::SmallVectorTemplateCommon.329" = type { %"class.llvm::SmallVectorBase" }
%"struct.llvm::SmallVectorStorage.330" = type { [16 x i8] }
%"class.llvm::DenseSet.331" = type { %"class.llvm::detail::DenseSetImpl.332" }
%"class.llvm::detail::DenseSetImpl.332" = type { %"class.llvm::DenseMap.333" }
%"class.llvm::DenseMap.333" = type <{ ptr, i32, i32, i32, [4 x i8] }>
%"class.llvm::SmallVector.336" = type { %"class.llvm::SmallVectorImpl.337", %"struct.llvm::SmallVectorStorage.340" }
%"class.llvm::SmallVectorImpl.337" = type { %"class.llvm::SmallVectorTemplateBase.338" }
%"class.llvm::SmallVectorTemplateBase.338" = type { %"class.llvm::SmallVectorTemplateCommon.339" }
%"class.llvm::SmallVectorTemplateCommon.339" = type { %"class.llvm::SmallVectorBase" }
%"struct.llvm::SmallVectorStorage.340" = type { [144 x i8] }
%"class.llvm::SmallVector.341" = type { %"class.llvm::SmallVectorImpl.342", %"struct.llvm::SmallVectorStorage.345" }
%"class.llvm::SmallVectorImpl.342" = type { %"class.llvm::SmallVectorTemplateBase.343" }
%"class.llvm::SmallVectorTemplateBase.343" = type { %"class.llvm::SmallVectorTemplateCommon.344" }
%"class.llvm::SmallVectorTemplateCommon.344" = type { %"class.llvm::SmallVectorBase" }
%"struct.llvm::SmallVectorStorage.345" = type { [80 x i8] }
%"class.llvm::SmallVector.346" = type { %"class.llvm::SmallVectorImpl.347", %"struct.llvm::SmallVectorStorage.350" }
%"class.llvm::SmallVectorImpl.347" = type { %"class.llvm::SmallVectorTemplateBase.348" }
%"class.llvm::SmallVectorTemplateBase.348" = type { %"class.llvm::SmallVectorTemplateCommon.349" }
%"class.llvm::SmallVectorTemplateCommon.349" = type { %"class.llvm::SmallVectorBase" }
%"struct.llvm::SmallVectorStorage.350" = type { [80 x i8] }
%"class.clang::SourceLocation" = type { i32 }
%"class.llvm::SmallSetVector.351" = type { %"class.llvm::SetVector.352" }
%"class.llvm::SetVector.352" = type { %"class.llvm::DenseSet.353", %"class.llvm::SmallVector.60" }
%"class.llvm::DenseSet.353" = type { %"class.llvm::detail::DenseSetImpl.354" }
%"class.llvm::detail::DenseSetImpl.354" = type { %"class.llvm::DenseMap.355" }
%"class.llvm::DenseMap.355" = type <{ ptr, i32, i32, i32, [4 x i8] }>
%"class.llvm::SmallVector.358" = type { %"class.llvm::SmallVectorImpl.359", %"struct.llvm::SmallVectorStorage.362" }
%"class.llvm::SmallVectorImpl.359" = type { %"class.llvm::SmallVectorTemplateBase.360" }
%"class.llvm::SmallVectorTemplateBase.360" = type { %"class.llvm::SmallVectorTemplateCommon.361" }
%"class.llvm::SmallVectorTemplateCommon.361" = type { %"class.llvm::SmallVectorBase" }
%"struct.llvm::SmallVectorStorage.362" = type { [16 x i8] }
%"class.llvm::SmallVector.363" = type { %"class.llvm::SmallVectorImpl.364", %"struct.llvm::SmallVectorStorage.367" }
%"class.llvm::SmallVectorImpl.364" = type { %"class.llvm::SmallVectorTemplateBase.365" }
%"class.llvm::SmallVectorTemplateBase.365" = type { %"class.llvm::SmallVectorTemplateCommon.366" }
%"class.llvm::SmallVectorTemplateCommon.366" = type { %"class.llvm::SmallVectorBase" }
%"struct.llvm::SmallVectorStorage.367" = type { [224 x i8] }
%"class.llvm::SmallVector.368" = type { %"class.llvm::SmallVectorImpl.369", %"struct.llvm::SmallVectorStorage.372" }
%"class.llvm::SmallVectorImpl.369" = type { %"class.llvm::SmallVectorTemplateBase.370" }
%"class.llvm::SmallVectorTemplateBase.370" = type { %"class.llvm::SmallVectorTemplateCommon.371" }
%"class.llvm::SmallVectorTemplateCommon.371" = type { %"class.llvm::SmallVectorBase" }
%"struct.llvm::SmallVectorStorage.372" = type { [192 x i8] }
%"class.llvm::SmallSetVector.373" = type { %"class.llvm::SetVector.374" }
%"class.llvm::SetVector.374" = type { %"class.llvm::DenseSet.331", %"class.llvm::SmallVector.375" }
%"class.llvm::SmallVector.375" = type { %"class.llvm::SmallVectorImpl.376", %"struct.llvm::SmallVectorStorage.379" }
%"class.llvm::SmallVectorImpl.376" = type { %"class.llvm::SmallVectorTemplateBase.377" }
%"class.llvm::SmallVectorTemplateBase.377" = type { %"class.llvm::SmallVectorTemplateCommon.378" }
%"class.llvm::SmallVectorTemplateCommon.378" = type { %"class.llvm::SmallVectorBase" }
%"struct.llvm::SmallVectorStorage.379" = type { [16 x i8] }
%"class.llvm::SmallVector.380" = type { %"class.llvm::SmallVectorImpl.381", %"struct.llvm::SmallVectorStorage.384" }
%"class.llvm::SmallVectorImpl.381" = type { %"class.llvm::SmallVectorTemplateBase.382" }
%"class.llvm::SmallVectorTemplateBase.382" = type { %"class.llvm::SmallVectorTemplateCommon.383" }
%"class.llvm::SmallVectorTemplateCommon.383" = type { %"class.llvm::SmallVectorBase" }
%"struct.llvm::SmallVectorStorage.384" = type { [80 x i8] }
%"class.std::vector.385" = type { %"struct.std::_Vector_base.386" }
%"struct.std::_Vector_base.386" = type { %"struct.std::_Vector_base<clang::Module::UnresolvedConflict, std::allocator<clang::Module::UnresolvedConflict>>::_Vector_impl" }
%"struct.std::_Vector_base<clang::Module::UnresolvedConflict, std::allocator<clang::Module::UnresolvedConflict>>::_Vector_impl" = type { %"struct.std::_Vector_base<clang::Module::UnresolvedConflict, std::allocator<clang::Module::UnresolvedConflict>>::_Vector_impl_data" }
%"struct.std::_Vector_base<clang::Module::UnresolvedConflict, std::allocator<clang::Module::UnresolvedConflict>>::_Vector_impl_data" = type { ptr, ptr, ptr }
%"class.std::vector.390" = type { %"struct.std::_Vector_base.391" }
%"struct.std::_Vector_base.391" = type { %"struct.std::_Vector_base<clang::Module::Conflict, std::allocator<clang::Module::Conflict>>::_Vector_impl" }
%"struct.std::_Vector_base<clang::Module::Conflict, std::allocator<clang::Module::Conflict>>::_Vector_impl" = type { %"struct.std::_Vector_base<clang::Module::Conflict, std::allocator<clang::Module::Conflict>>::_Vector_impl_data" }
%"struct.std::_Vector_base<clang::Module::Conflict, std::allocator<clang::Module::Conflict>>::_Vector_impl_data" = type { ptr, ptr, ptr }
%"class.llvm::StringMapEntryStorage.688" = type { %"class.llvm::StringMapEntryBase", %"class.llvm::ErrorOr.689" }
%"class.llvm::StringMapEntryBase" = type { i64 }
%"class.llvm::ErrorOr.689" = type { %union.anon.690, i8, [7 x i8] }
%union.anon.690 = type { %"struct.llvm::AlignedCharArrayUnion.691" }
%"struct.llvm::AlignedCharArrayUnion.691" = type { [16 x i8] }
%"class.llvm::StringMapEntry.687" = type { %"class.llvm::StringMapEntryStorage.688" }

; Function Attrs: mustprogress nounwind uwtable
define linkonce_odr hidden void @_ZN4llvm9StringRefC2EPKcm(ptr noundef nonnull align 8 dereferenceable(16) %0, ptr noundef %1, i64 noundef %2) unnamed_addr #0 comdat align 2 {
  %4 = alloca ptr, align 8
  %5 = alloca ptr, align 8
  %6 = alloca i64, align 8
  store ptr %0, ptr %4, align 8
  store ptr %1, ptr %5, align 8
  store i64 %2, ptr %6, align 8
  %7 = load ptr, ptr %4, align 8
  %8 = getelementptr inbounds nuw %"class.llvm::StringRef", ptr %7, i32 0, i32 0
  %9 = load ptr, ptr %5, align 8
  store ptr %9, ptr %8, align 8
  %10 = getelementptr inbounds nuw %"class.llvm::StringRef", ptr %7, i32 0, i32 1
  %11 = load i64, ptr %6, align 8
  store i64 %11, ptr %10, align 8
  ret void
}

; Function Attrs: mustprogress nounwind uwtable
define linkonce_odr hidden noundef i64 @_ZNK4llvm18StringMapEntryBase12getKeyLengthEv(ptr noundef nonnull align 8 dereferenceable(8) %0) #0 comdat align 2 {
  %2 = alloca ptr, align 8
  store ptr %0, ptr %2, align 8
  %3 = load ptr, ptr %2, align 8
  %4 = getelementptr inbounds nuw %"class.llvm::StringMapEntryBase", ptr %3, i32 0, i32 0
  %5 = load i64, ptr %4, align 8
  ret i64 %5
}

; Function Attrs: mustprogress nounwind uwtable
define linkonce_odr hidden noundef ptr @_ZNK4llvm14StringMapEntryINS_7ErrorOrIN5clang12FileEntryRef8MapValueEEEE10getKeyDataEv(ptr noundef nonnull align 8 dereferenceable(32) %0) #0 comdat align 2 {
  %2 = alloca ptr, align 8
  store ptr %0, ptr %2, align 8
  %3 = load ptr, ptr %2, align 8
  %4 = getelementptr inbounds %"class.llvm::StringMapEntry.687", ptr %3, i64 1
  ret ptr %4
}

; Function Attrs: mustprogress nounwind uwtable
define linkonce_odr hidden { ptr, i64 } @_ZNK4llvm14StringMapEntryINS_7ErrorOrIN5clang12FileEntryRef8MapValueEEEE5firstEv(ptr noundef nonnull align 8 dereferenceable(32) %0) #0 comdat align 2 {
  %2 = alloca %"class.llvm::StringRef", align 8
  %3 = alloca ptr, align 8
  store ptr %0, ptr %3, align 8
  %4 = load ptr, ptr %3, align 8
  %5 = call noundef ptr @_ZNK4llvm14StringMapEntryINS_7ErrorOrIN5clang12FileEntryRef8MapValueEEEE10getKeyDataEv(ptr noundef nonnull align 8 dereferenceable(32) %4)
  %6 = call noundef i64 @_ZNK4llvm18StringMapEntryBase12getKeyLengthEv(ptr noundef nonnull align 8 dereferenceable(8) %4)
  call void @_ZN4llvm9StringRefC2EPKcm(ptr noundef nonnull align 8 dereferenceable(16) %2, ptr noundef %5, i64 noundef %6)
  %7 = load { ptr, i64 }, ptr %2, align 8
  ret { ptr, i64 } %7
}

; Function Attrs: mustprogress nounwind uwtable
define linkonce_odr hidden { ptr, i64 } @_ZNK5clang12FileEntryRef18getNameAsRequestedEv(ptr noundef nonnull align 8 dereferenceable(8) %0) #0 comdat align 2 {
  %2 = alloca %"class.llvm::StringRef", align 8
  %3 = alloca ptr, align 8
  store ptr %0, ptr %3, align 8
  %4 = load ptr, ptr %3, align 8
  %5 = getelementptr inbounds nuw %"class.clang::FileEntryRef", ptr %4, i32 0, i32 0
  %6 = load ptr, ptr %5, align 8
  %7 = call { ptr, i64 } @_ZNK4llvm14StringMapEntryINS_7ErrorOrIN5clang12FileEntryRef8MapValueEEEE5firstEv(ptr noundef nonnull align 8 dereferenceable(32) %6)
  %8 = getelementptr inbounds nuw { ptr, i64 }, ptr %2, i32 0, i32 0
  %9 = extractvalue { ptr, i64 } %7, 0
  store ptr %9, ptr %8, align 8
  %10 = getelementptr inbounds nuw { ptr, i64 }, ptr %2, i32 0, i32 1
  %11 = extractvalue { ptr, i64 } %7, 1
  store i64 %11, ptr %10, align 8
  %12 = load { ptr, i64 }, ptr %2, align 8
  ret { ptr, i64 } %12
}

; Function Attrs: mustprogress nounwind uwtable
define internal noundef zeroext i1 @_ZL16needModuleLookupPN5clang6ModuleEb(ptr noundef %0, i1 noundef zeroext %1) #0 {
  %3 = alloca ptr, align 8
  %4 = alloca i8, align 1
  store ptr %0, ptr %3, align 8
  %5 = zext i1 %1 to i8
  store i8 %5, ptr %4, align 1
  %6 = load i8, ptr %4, align 1
  %7 = trunc i8 %6 to i1
  br i1 %7, label %21, label %8

8:                                                ; preds = %2
  %9 = load ptr, ptr %3, align 8
  %10 = icmp ne ptr %9, null
  br i1 %10, label %11, label %19

11:                                               ; preds = %8
  %12 = load ptr, ptr %3, align 8
  %13 = getelementptr inbounds nuw %"class.clang::Module", ptr %12, i32 0, i32 24
  %14 = load i16, ptr %13, align 8
  %15 = lshr i16 %14, 13
  %16 = and i16 %15, 1
  %17 = zext i16 %16 to i32
  %18 = icmp ne i32 %17, 0
  br label %19

19:                                               ; preds = %11, %8
  %20 = phi i1 [ false, %8 ], [ %18, %11 ]
  br label %21

21:                                               ; preds = %19, %2
  %22 = phi i1 [ true, %2 ], [ %20, %19 ]
  ret i1 %22
}

; Function Attrs: mustprogress nounwind uwtable
define dso_local noundef zeroext i1 @_ZN5clang12HeaderSearch25findUsableModuleForHeaderENS_12FileEntryRefEPKNS_14DirectoryEntryEPNS_6ModuleEPNS_9ModuleMap11KnownHeaderEb(ptr noundef nonnull align 8 dereferenceable(2192) %0, ptr %1, ptr noundef %2, ptr noundef %3, ptr noundef %4, i1 noundef zeroext %5) #0 align 2 {
  %7 = alloca i1, align 1
  %8 = alloca %"class.clang::FileEntryRef", align 8
  %9 = alloca ptr, align 8
  %10 = alloca ptr, align 8
  %11 = alloca ptr, align 8
  %12 = alloca ptr, align 8
  %13 = alloca i8, align 1
  %14 = alloca %"class.llvm::StringRef", align 8
  %15 = alloca %"class.clang::FileEntryRef", align 8
  %16 = getelementptr inbounds nuw %"class.clang::FileEntryRef", ptr %8, i32 0, i32 0
  store ptr %1, ptr %16, align 8
  store ptr %0, ptr %9, align 8
  store ptr %2, ptr %10, align 8
  store ptr %3, ptr %11, align 8
  store ptr %4, ptr %12, align 8
  %17 = zext i1 %5 to i8
  store i8 %17, ptr %13, align 1
  %18 = load ptr, ptr %9, align 8
  %19 = load ptr, ptr %11, align 8
  %20 = load ptr, ptr %12, align 8
  %21 = icmp ne ptr %20, null
  %22 = call noundef zeroext i1 @_ZL16needModuleLookupPN5clang6ModuleEb(ptr noundef %19, i1 noundef zeroext %21)
  br i1 %22, label %23, label %42

23:                                               ; preds = %6
  %24 = call { ptr, i64 } @_ZNK5clang12FileEntryRef18getNameAsRequestedEv(ptr noundef nonnull align 8 dereferenceable(8) %8)
  %25 = getelementptr inbounds nuw { ptr, i64 }, ptr %14, i32 0, i32 0
  %26 = extractvalue { ptr, i64 } %24, 0
  store ptr %26, ptr %25, align 8
  %27 = getelementptr inbounds nuw { ptr, i64 }, ptr %14, i32 0, i32 1
  %28 = extractvalue { ptr, i64 } %24, 1
  store i64 %28, ptr %27, align 8
  %29 = load ptr, ptr %10, align 8
  %30 = load i8, ptr %13, align 1
  %31 = trunc i8 %30 to i1
  %32 = getelementptr inbounds nuw { ptr, i64 }, ptr %14, i32 0, i32 0
  %33 = load ptr, ptr %32, align 8
  %34 = getelementptr inbounds nuw { ptr, i64 }, ptr %14, i32 0, i32 1
  %35 = load i64, ptr %34, align 8
  %36 = call noundef zeroext i1 @_ZN5clang12HeaderSearch12hasModuleMapEN4llvm9StringRefEPKNS_14DirectoryEntryEb(ptr noundef nonnull align 8 dereferenceable(2192) %18, ptr %33, i64 %35, ptr noundef %29, i1 noundef zeroext %31)
  call void @llvm.memcpy.p0.p0.i64(ptr align 8 %15, ptr align 8 %8, i64 8, i1 false)
  %37 = load ptr, ptr %11, align 8
  %38 = load ptr, ptr %12, align 8
  %39 = getelementptr inbounds nuw %"class.clang::FileEntryRef", ptr %15, i32 0, i32 0
  %40 = load ptr, ptr %39, align 8
  %41 = call noundef zeroext i1 @_ZL13suggestModuleRN5clang12HeaderSearchENS_12FileEntryRefEPNS_6ModuleEPNS_9ModuleMap11KnownHeaderE(ptr noundef nonnull align 8 dereferenceable(2192) %18, ptr %40, ptr noundef %37, ptr noundef %38)
  store i1 %41, ptr %7, align 1
  br label %43

42:                                               ; preds = %6
  store i1 true, ptr %7, align 1
  br label %43

43:                                               ; preds = %42, %23
  %44 = load i1, ptr %7, align 1
  ret i1 %44
}