; Function Attrs: mustprogress nounwind uwtable
define dso_local noundef zeroext i1 @_ZN5clang12HeaderSearch25findUsableModuleForHeaderENS_12FileEntryRefEPKNS_14DirectoryEntryEPNS_6ModuleEPNS_9ModuleMap11KnownHeaderEb(ptr noundef nonnull align 8 dereferenceable(2192) %0, ptr %1, ptr noundef %2, ptr noundef %3, ptr noundef %4, i1 noundef zeroext %5) local_unnamed_addr #0 align 2 {
  %.not = icmp eq ptr %4, null
  br i1 %.not, label %7, label %_ZL16needModuleLookupPN5clang6ModuleEb.exit.thread

7:                                                ; preds = %6
  %.not.i = icmp eq ptr %3, null
  br i1 %.not.i, label %_ZL16needModuleLookupPN5clang6ModuleEb.exit.thread8, label %_ZL16needModuleLookupPN5clang6ModuleEb.exit

_ZL16needModuleLookupPN5clang6ModuleEb.exit:      ; preds = %7
  %8 = getelementptr inbounds nuw i8, ptr %3, i64 1520
  %9 = load i16, ptr %8, align 8
  %10 = and i16 %9, 8192
  %.not9 = icmp eq i16 %10, 0
  br i1 %.not9, label %_ZL16needModuleLookupPN5clang6ModuleEb.exit.thread8, label %_ZL16needModuleLookupPN5clang6ModuleEb.exit.thread

_ZL16needModuleLookupPN5clang6ModuleEb.exit.thread: ; preds = %6, %_ZL16needModuleLookupPN5clang6ModuleEb.exit
  %11 = getelementptr inbounds i8, ptr %1, i64 32
  %12 = load i64, ptr %1, align 8
  %13 = tail call noundef zeroext i1 @_ZN5clang12HeaderSearch12hasModuleMapEN4llvm9StringRefEPKNS_14DirectoryEntryEb(ptr noundef nonnull align 8 dereferenceable(2192) %0, ptr nonnull %11, i64 %12, ptr noundef %2, i1 noundef zeroext %5)
  %14 = tail call fastcc noundef zeroext i1 @_ZL13suggestModuleRN5clang12HeaderSearchENS_12FileEntryRefEPNS_6ModuleEPNS_9ModuleMap11KnownHeaderE(ptr noundef nonnull align 8 dereferenceable(2192) %0, ptr nonnull %1, ptr noundef %3, ptr noundef %4)
  br label %_ZL16needModuleLookupPN5clang6ModuleEb.exit.thread8

_ZL16needModuleLookupPN5clang6ModuleEb.exit.thread8: ; preds = %7, %_ZL16needModuleLookupPN5clang6ModuleEb.exit, %_ZL16needModuleLookupPN5clang6ModuleEb.exit.thread
  %.0 = phi i1 [ %14, %_ZL16needModuleLookupPN5clang6ModuleEb.exit.thread ], [ true, %_ZL16needModuleLookupPN5clang6ModuleEb.exit ], [ true, %7 ]
  ret i1 %.0
}